; ModuleID = '60/1375.c'
source_filename = "60/1375.c"
target datalayout = "e-m:e-p270:32:32-p271:32:32-p272:64:64-i64:64-f80:128-n8:16:32:64-S128"
target triple = "x86_64-pc-linux-gnu"

@.str = private unnamed_addr constant [3 x i8] c"%d\00", align 1
@.str.1 = private unnamed_addr constant [7 x i8] c"%d %d\0A\00", align 1
@.str.2 = private unnamed_addr constant [7 x i8] c"empty\0A\00", align 1

; Function Attrs: noinline nounwind uwtable
define dso_local i32 @main() #0 {
  %1 = alloca i32, align 4
  %2 = alloca i32, align 4
  %3 = alloca i32, align 4
  %4 = alloca i32, align 4
  %5 = alloca i32, align 4
  store i32 0, i32* %1, align 4
  store i32 0, i32* %5, align 4
  %6 = call i32 (i8*, ...) @__isoc99_scanf(i8* getelementptr inbounds ([3 x i8], [3 x i8]* @.str, i64 0, i64 0), i32* %2)
  store i32 4, i32* %3, align 4
  br label %7

7:                                                ; preds = %26, %0
  %8 = load i32, i32* %3, align 4
  %9 = load i32, i32* %2, align 4
  %10 = icmp sle i32 %8, %9
  br i1 %10, label %11, label %29

11:                                               ; preds = %7
  %12 = load i32, i32* %3, align 4
  %13 = call i32 @sushu(i32 %12)
  %14 = icmp eq i32 %13, 1
  br i1 %14, label %15, label %25

15:                                               ; preds = %11
  %16 = load i32, i32* %3, align 4
  %17 = sub nsw i32 %16, 2
  %18 = call i32 @sushu(i32 %17)
  %19 = icmp eq i32 %18, 1
  br i1 %19, label %20, label %25

20:                                               ; preds = %15
  %21 = load i32, i32* %3, align 4
  %22 = sub nsw i32 %21, 2
  %23 = load i32, i32* %3, align 4
  %24 = call i32 (i8*, ...) @printf(i8* getelementptr inbounds ([7 x i8], [7 x i8]* @.str.1, i64 0, i64 0), i32 %22, i32 %23)
  store i32 1, i32* %5, align 4
  br label %25

25:                                               ; preds = %20, %15, %11
  br label %26

26:                                               ; preds = %25
  %27 = load i32, i32* %3, align 4
  %28 = add nsw i32 %27, 1
  store i32 %28, i32* %3, align 4
  br label %7

29:                                               ; preds = %7
  %30 = load i32, i32* %5, align 4
  %31 = icmp eq i32 %30, 0
  br i1 %31, label %32, label %34

32:                                               ; preds = %29
  %33 = call i32 (i8*, ...) @printf(i8* getelementptr inbounds ([7 x i8], [7 x i8]* @.str.2, i64 0, i64 0))
  br label %34

34:                                               ; preds = %32, %29
  ret i32 0
}

declare dso_local i32 @__isoc99_scanf(i8*, ...) #1

; Function Attrs: noinline nounwind uwtable
define dso_local i32 @sushu(i32 %0) #0 {
  %2 = alloca i32, align 4
  %3 = alloca i32, align 4
  %4 = alloca double, align 8
  %5 = alloca i32, align 4
  store i32 %0, i32* %2, align 4
  store i32 1, i32* %3, align 4
  %6 = load i32, i32* %2, align 4
  %7 = sitofp i32 %6 to double
  %8 = call double @sqrt(double %7) #3
  store double %8, double* %4, align 8
  store i32 2, i32* %5, align 4
  br label %9

9:                                                ; preds = %21, %1
  %10 = load i32, i32* %5, align 4
  %11 = sitofp i32 %10 to double
  %12 = load double, double* %4, align 8
  %13 = fcmp ole double %11, %12
  br i1 %13, label %14, label %24

14:                                               ; preds = %9
  %15 = load i32, i32* %2, align 4
  %16 = load i32, i32* %5, align 4
  %17 = srem i32 %15, %16
  %18 = icmp eq i32 %17, 0
  br i1 %18, label %19, label %20

19:                                               ; preds = %14
  store i32 0, i32* %3, align 4
  br label %20

20:                                               ; preds = %19, %14
  br label %21

21:                                               ; preds = %20
  %22 = load i32, i32* %5, align 4
  %23 = add nsw i32 %22, 1
  store i32 %23, i32* %5, align 4
  br label %9

24:                                               ; preds = %9
  %25 = load i32, i32* %3, align 4
  ret i32 %25
}

declare dso_local i32 @printf(i8*, ...) #1

; Function Attrs: nounwind
declare dso_local double @sqrt(double) #2


!llvm.module.flags = !{!0}
!llvm.ident = !{!1}

!0 = !{i32 1, !"wchar_size", i32 4}
!1 = !{!"clang version 10.0.0-4ubuntu1 "}
